; Function Attrs: uwtable
define hidden noundef zeroext i1 @_ZThn48_N7specrel6solver5visitEP4expr(ptr noundef %0, ptr noundef %1) unnamed_addr #7 align 2 {
  %3 = getelementptr inbounds i8, ptr %0, i64 -48
  %4 = load ptr, ptr %3, align 8, !tbaa !388
  %5 = getelementptr inbounds nuw i8, ptr %4, i64 584
  %6 = load ptr, ptr %5, align 8
  %7 = tail call noundef zeroext i1 %6(ptr noundef nonnull align 8 dereferenceable(128) %3, ptr noundef %1)
  br i1 %7, label %_ZN7specrel6solver5visitEP4expr.exit, label %8

8:                                                ; preds = %2
  %9 = getelementptr inbounds nuw i8, ptr %0, i64 16
  %10 = load ptr, ptr %9, align 8, !tbaa !419
  %11 = icmp eq ptr %10, null
  br i1 %11, label %18, label %12

12:                                               ; preds = %8
  %13 = getelementptr inbounds i8, ptr %10, i64 -4
  %14 = load i32, ptr %13, align 4, !tbaa !387
  %15 = getelementptr inbounds i8, ptr %10, i64 -8
  %16 = load i32, ptr %15, align 4, !tbaa !387
  %17 = icmp eq i32 %14, %16
  br i1 %17, label %18, label %_ZN6vectorIN3sat6eframeELb0EjE9push_backEOS1_.exit.i

18:                                               ; preds = %12, %8
  tail call void @_ZN6vectorIN3sat6eframeELb0EjE13expand_vectorEv(ptr noundef nonnull align 8 dereferenceable(8) %9)
  %.pre.i.i = load ptr, ptr %9, align 8, !tbaa !419
  %.phi.trans.insert.i.i = getelementptr inbounds i8, ptr %.pre.i.i, i64 -4
  %.pre2.i.i = load i32, ptr %.phi.trans.insert.i.i, align 4, !tbaa !387
  br label %_ZN6vectorIN3sat6eframeELb0EjE9push_backEOS1_.exit.i

_ZN6vectorIN3sat6eframeELb0EjE9push_backEOS1_.exit.i: ; preds = %18, %12
  %19 = phi i32 [ %.pre2.i.i, %18 ], [ %14, %12 ]
  %20 = phi ptr [ %.pre.i.i, %18 ], [ %10, %12 ]
  %21 = zext i32 %19 to i64
  %22 = getelementptr inbounds nuw %"struct.sat::eframe", ptr %20, i64 %21
  store ptr %1, ptr %22, align 8, !tbaa !420
  %.sroa.4.0..sroa_idx.i = getelementptr inbounds nuw i8, ptr %22, i64 8
  store i32 0, ptr %.sroa.4.0..sroa_idx.i, align 8, !tbaa !387
  %23 = getelementptr inbounds i8, ptr %20, i64 -4
  %24 = add i32 %19, 1
  store i32 %24, ptr %23, align 4, !tbaa !387
  br label %_ZN7specrel6solver5visitEP4expr.exit

_ZN7specrel6solver5visitEP4expr.exit:             ; preds = %2, %_ZN6vectorIN3sat6eframeELb0EjE9push_backEOS1_.exit.i
  ret i1 %7
}